target datalayout = "e-m:e-p270:32:32-p271:32:32-p272:64:64-i64:64-i128:128-f80:128-n8:16:32:64-S128"
target triple = "x86_64-pc-linux-gnu"

; Function Attrs: nounwind uwtable
define internal float @avifToLinearHLG(float noundef %0) #0 {
  %2 = alloca float, align 4
  %3 = alloca float, align 4
  %4 = alloca float, align 4
  store float %0, ptr %3, align 4
  %5 = load float, ptr %3, align 4
  %6 = fcmp olt float %5, 0.000000e+00
  br i1 %6, label %7, label %8

7:                                                ; preds = %1
  store float 0.000000e+00, ptr %2, align 4
  br label %29

8:                                                ; preds = %1
  store float 0.000000e+00, ptr %4, align 4
  %9 = load float, ptr %3, align 4
  %10 = fcmp ole float %9, 5.000000e-01
  br i1 %10, label %11, label %17

11:                                               ; preds = %8
  %12 = load float, ptr %3, align 4
  %13 = load float, ptr %3, align 4
  %14 = fmul float %12, %13
  %15 = fmul float %14, 0x3FD5555560000000
  %16 = call float @powf(float noundef %15, float noundef 0x3FF3333340000000) #4
  store float %16, ptr %4, align 4
  br label %25

17:                                               ; preds = %8
  %18 = load float, ptr %3, align 4
  %19 = fsub float %18, 0x3FE1EAC9E0000000
  %20 = fdiv float %19, 0x3FC6E3FE00000000
  %21 = call float @expf(float noundef %20) #4
  %22 = fadd float %21, 0x3FD2380400000000
  %23 = fdiv float %22, 1.200000e+01
  %24 = call float @powf(float noundef %23, float noundef 0x3FF3333340000000) #4
  store float %24, ptr %4, align 4
  br label %25

25:                                               ; preds = %17, %11
  %26 = load float, ptr %4, align 4
  %27 = fmul float %26, 1.000000e+03
  %28 = fdiv float %27, 2.030000e+02
  store float %28, ptr %2, align 4
  br label %29

29:                                               ; preds = %25, %7
  %30 = load float, ptr %2, align 4
  ret float %30
}