; Function Attrs: mustprogress nofree nounwind willreturn memory(write) uwtable
define internal float @avifToLinearHLG(float noundef %0) #5 {
  %2 = fcmp olt float %0, 0.000000e+00
  br i1 %2, label %18, label %3

3:                                                ; preds = %1
  %4 = fcmp ugt float %0, 5.000000e-01
  br i1 %4, label %8, label %5

5:                                                ; preds = %3
  %6 = fmul float %0, %0
  %7 = fmul float %6, 0x3FD5555560000000
  br label %14

8:                                                ; preds = %3
  %9 = fadd float %0, 0xBFE1EAC9E0000000
  %10 = fdiv float %9, 0x3FC6E3FE00000000
  %11 = tail call float @expf(float noundef %10) #9
  %12 = fadd float %11, 0x3FD2380400000000
  %13 = fdiv float %12, 1.200000e+01
  br label %14

14:                                               ; preds = %8, %5
  %.sink = phi float [ %13, %8 ], [ %7, %5 ]
  %15 = tail call float @powf(float noundef %.sink, float noundef 0x3FF3333340000000) #9
  %16 = fmul float %15, 1.000000e+03
  %17 = fdiv float %16, 2.030000e+02
  br label %18

18:                                               ; preds = %1, %14
  %.07 = phi float [ %17, %14 ], [ 0.000000e+00, %1 ]
  ret float %.07
}